target datalayout = "e-m:e-p270:32:32-p271:32:32-p272:64:64-i64:64-f80:128-n8:16:32:64-S128"
target triple = "x86_64-pc-linux-gnu"

@.str = private unnamed_addr constant [3 x i8] c"%d\00", align 1
@.str.1 = private unnamed_addr constant [3 x i8] c"%s\00", align 1

; Function Attrs: noinline nounwind uwtable
define dso_local i32 @main() #0 {
  %1 = alloca i32, align 4
  %2 = alloca i32, align 4
  %3 = alloca i32, align 4
  %4 = alloca i32, align 4
  %5 = alloca i32, align 4
  %6 = alloca [100 x [100 x i8]], align 16
  %7 = alloca [100 x [100 x i8]], align 16
  %8 = alloca i32, align 4
  store i32 0, i32* %1, align 4
  %9 = call i32 (i8*, ...) @__isoc99_scanf(i8* getelementptr inbounds ([3 x i8], [3 x i8]* @.str, i64 0, i64 0), i32* %2)
  store i32 1, i32* %4, align 4
  br label %10

10:                                               ; preds = %20, %0
  %11 = load i32, i32* %4, align 4
  %12 = load i32, i32* %2, align 4
  %13 = icmp sle i32 %11, %12
  br i1 %13, label %14, label %23

14:                                               ; preds = %10
  %15 = load i32, i32* %4, align 4
  %16 = sext i32 %15 to i64
  %17 = getelementptr inbounds [100 x [100 x i8]], [100 x [100 x i8]]* %6, i64 0, i64 %16
  %18 = getelementptr inbounds [100 x i8], [100 x i8]* %17, i64 0, i64 0
  %19 = call i32 (i8*, ...) @__isoc99_scanf(i8* getelementptr inbounds ([3 x i8], [3 x i8]* @.str.1, i64 0, i64 0), i8* %18)
  br label %20

20:                                               ; preds = %14
  %21 = load i32, i32* %4, align 4
  %22 = add nsw i32 %21, 1
  store i32 %22, i32* %4, align 4
  br label %10

23:                                               ; preds = %10
  store i32 1, i32* %4, align 4
  br label %24

24:                                               ; preds = %38, %23
  %25 = load i32, i32* %4, align 4
  %26 = load i32, i32* %2, align 4
  %27 = icmp sle i32 %25, %26
  br i1 %27, label %28, label %41

28:                                               ; preds = %24
  %29 = load i32, i32* %4, align 4
  %30 = sext i32 %29 to i64
  %31 = getelementptr inbounds [100 x [100 x i8]], [100 x [100 x i8]]* %7, i64 0, i64 %30
  %32 = getelementptr inbounds [100 x i8], [100 x i8]* %31, i64 0, i64 0
  %33 = load i32, i32* %4, align 4
  %34 = sext i32 %33 to i64
  %35 = getelementptr inbounds [100 x [100 x i8]], [100 x [100 x i8]]* %6, i64 0, i64 %34
  %36 = getelementptr inbounds [100 x i8], [100 x i8]* %35, i64 0, i64 0
  %37 = call i8* @strcpy(i8* %32, i8* %36) #3
  br label %38

38:                                               ; preds = %28
  %39 = load i32, i32* %4, align 4
  %40 = add nsw i32 %39, 1
  store i32 %40, i32* %4, align 4
  br label %24

41:                                               ; preds = %24
  %42 = call i32 (i8*, ...) @__isoc99_scanf(i8* getelementptr inbounds ([3 x i8], [3 x i8]* @.str, i64 0, i64 0), i32* %3)
  %43 = load i32, i32* %3, align 4
  %44 = add nsw i32 %43, -1
  store i32 %44, i32* %3, align 4
  br label %45

45:                                               ; preds = %184, %41
  %46 = load i32, i32* %3, align 4
  %47 = icmp ne i32 %46, 0
  br i1 %47, label %48, label %187

48:                                               ; preds = %45
  store i32 1, i32* %4, align 4
  br label %49

49:                                               ; preds = %163, %48
  %50 = load i32, i32* %4, align 4
  %51 = load i32, i32* %2, align 4
  %52 = icmp sle i32 %50, %51
  br i1 %52, label %53, label %166

53:                                               ; preds = %49
  store i32 0, i32* %5, align 4
  %54 = load i32, i32* %4, align 4
  %55 = sext i32 %54 to i64
  %56 = getelementptr inbounds [100 x [100 x i8]], [100 x [100 x i8]]* %6, i64 0, i64 %55
  %57 = getelementptr inbounds [100 x i8], [100 x i8]* %56, i64 0, i64 1
  %58 = load i8, i8* %57, align 1
  %59 = sext i8 %58 to i32
  %60 = icmp eq i32 %59, 64
  br i1 %60, label %79, label %61

61:                                               ; preds = %53
  %62 = load i32, i32* %4, align 4
  %63 = sub nsw i32 %62, 1
  %64 = sext i32 %63 to i64
  %65 = getelementptr inbounds [100 x [100 x i8]], [100 x [100 x i8]]* %6, i64 0, i64 %64
  %66 = getelementptr inbounds [100 x i8], [100 x i8]* %65, i64 0, i64 0
  %67 = load i8, i8* %66, align 4
  %68 = sext i8 %67 to i32
  %69 = icmp eq i32 %68, 64
  br i1 %69, label %79, label %70

70:                                               ; preds = %61
  %71 = load i32, i32* %4, align 4
  %72 = add nsw i32 %71, 1
  %73 = sext i32 %72 to i64
  %74 = getelementptr inbounds [100 x [100 x i8]], [100 x [100 x i8]]* %6, i64 0, i64 %73
  %75 = getelementptr inbounds [100 x i8], [100 x i8]* %74, i64 0, i64 0
  %76 = load i8, i8* %75, align 4
  %77 = sext i8 %76 to i32
  %78 = icmp eq i32 %77, 64
  br i1 %78, label %79, label %92

79:                                               ; preds = %70, %61, %53
  %80 = load i32, i32* %4, align 4
  %81 = sext i32 %80 to i64
  %82 = getelementptr inbounds [100 x [100 x i8]], [100 x [100 x i8]]* %6, i64 0, i64 %81
  %83 = getelementptr inbounds [100 x i8], [100 x i8]* %82, i64 0, i64 0
  %84 = load i8, i8* %83, align 4
  %85 = sext i8 %84 to i32
  %86 = icmp eq i32 %85, 46
  br i1 %86, label %87, label %92

87:                                               ; preds = %79
  %88 = load i32, i32* %4, align 4
  %89 = sext i32 %88 to i64
  %90 = getelementptr inbounds [100 x [100 x i8]], [100 x [100 x i8]]* %7, i64 0, i64 %89
  %91 = getelementptr inbounds [100 x i8], [100 x i8]* %90, i64 0, i64 0
  store i8 64, i8* %91, align 4
  br label %92

92:                                               ; preds = %87, %79, %70
  store i32 1, i32* %5, align 4
  br label %93

93:                                               ; preds = %159, %92
  %94 = load i32, i32* %5, align 4
  %95 = load i32, i32* %2, align 4
  %96 = icmp slt i32 %94, %95
  br i1 %96, label %97, label %162

97:                                               ; preds = %93
  %98 = load i32, i32* %4, align 4
  %99 = sext i32 %98 to i64
  %100 = getelementptr inbounds [100 x [100 x i8]], [100 x [100 x i8]]* %6, i64 0, i64 %99
  %101 = load i32, i32* %5, align 4
  %102 = add nsw i32 %101, 1
  %103 = sext i32 %102 to i64
  %104 = getelementptr inbounds [100 x i8], [100 x i8]* %100, i64 0, i64 %103
  %105 = load i8, i8* %104, align 1
  %106 = sext i8 %105 to i32
  %107 = icmp eq i32 %106, 64
  br i1 %107, label %141, label %108

108:                                              ; preds = %97
  %109 = load i32, i32* %4, align 4
  %110 = sub nsw i32 %109, 1
  %111 = sext i32 %110 to i64
  %112 = getelementptr inbounds [100 x [100 x i8]], [100 x [100 x i8]]* %6, i64 0, i64 %111
  %113 = load i32, i32* %5, align 4
  %114 = sext i32 %113 to i64
  %115 = getelementptr inbounds [100 x i8], [100 x i8]* %112, i64 0, i64 %114
  %116 = load i8, i8* %115, align 1
  %117 = sext i8 %116 to i32
  %118 = icmp eq i32 %117, 64
  br i1 %118, label %141, label %119

119:                                              ; preds = %108
  %120 = load i32, i32* %4, align 4
  %121 = add nsw i32 %120, 1
  %122 = sext i32 %121 to i64
  %123 = getelementptr inbounds [100 x [100 x i8]], [100 x [100 x i8]]* %6, i64 0, i64 %122
  %124 = load i32, i32* %5, align 4
  %125 = sext i32 %124 to i64
  %126 = getelementptr inbounds [100 x i8], [100 x i8]* %123, i64 0, i64 %125
  %127 = load i8, i8* %126, align 1
  %128 = sext i8 %127 to i32
  %129 = icmp eq i32 %128, 64
  br i1 %129, label %141, label %130

130:                                              ; preds = %119
  %131 = load i32, i32* %4, align 4
  %132 = sext i32 %131 to i64
  %133 = getelementptr inbounds [100 x [100 x i8]], [100 x [100 x i8]]* %6, i64 0, i64 %132
  %134 = load i32, i32* %5, align 4
  %135 = sub nsw i32 %134, 1
  %136 = sext i32 %135 to i64
  %137 = getelementptr inbounds [100 x i8], [100 x i8]* %133, i64 0, i64 %136
  %138 = load i8, i8* %137, align 1
  %139 = sext i8 %138 to i32
  %140 = icmp eq i32 %139, 64
  br i1 %140, label %141, label %158

141:                                              ; preds = %130, %119, %108, %97
  %142 = load i32, i32* %4, align 4
  %143 = sext i32 %142 to i64
  %144 = getelementptr inbounds [100 x [100 x i8]], [100 x [100 x i8]]* %6, i64 0, i64 %143
  %145 = load i32, i32* %5, align 4
  %146 = sext i32 %145 to i64
  %147 = getelementptr inbounds [100 x i8], [100 x i8]* %144, i64 0, i64 %146
  %148 = load i8, i8* %147, align 1
  %149 = sext i8 %148 to i32
  %150 = icmp eq i32 %149, 46
  br i1 %150, label %151, label %158

151:                                              ; preds = %141
  %152 = load i32, i32* %4, align 4
  %153 = sext i32 %152 to i64
  %154 = getelementptr inbounds [100 x [100 x i8]], [100 x [100 x i8]]* %7, i64 0, i64 %153
  %155 = load i32, i32* %5, align 4
  %156 = sext i32 %155 to i64
  %157 = getelementptr inbounds [100 x i8], [100 x i8]* %154, i64 0, i64 %156
  store i8 64, i8* %157, align 1
  br label %158

158:                                              ; preds = %151, %141, %130
  br label %159

159:                                              ; preds = %158
  %160 = load i32, i32* %5, align 4
  %161 = add nsw i32 %160, 1
  store i32 %161, i32* %5, align 4
  br label %93

162:                                              ; preds = %93
  br label %163

163:                                              ; preds = %162
  %164 = load i32, i32* %4, align 4
  %165 = add nsw i32 %164, 1
  store i32 %165, i32* %4, align 4
  br label %49

166:                                              ; preds = %49
  store i32 1, i32* %4, align 4
  br label %167

167:                                              ; preds = %181, %166
  %168 = load i32, i32* %4, align 4
  %169 = load i32, i32* %2, align 4
  %170 = icmp sle i32 %168, %169
  br i1 %170, label %171, label %184

171:                                              ; preds = %167
  %172 = load i32, i32* %4, align 4
  %173 = sext i32 %172 to i64
  %174 = getelementptr inbounds [100 x [100 x i8]], [100 x [100 x i8]]* %6, i64 0, i64 %173
  %175 = getelementptr inbounds [100 x i8], [100 x i8]* %174, i64 0, i64 0
  %176 = load i32, i32* %4, align 4
  %177 = sext i32 %176 to i64
  %178 = getelementptr inbounds [100 x [100 x i8]], [100 x [100 x i8]]* %7, i64 0, i64 %177
  %179 = getelementptr inbounds [100 x i8], [100 x i8]* %178, i64 0, i64 0
  %180 = call i8* @strcpy(i8* %175, i8* %179) #3
  br label %181

181:                                              ; preds = %171
  %182 = load i32, i32* %4, align 4
  %183 = add nsw i32 %182, 1
  store i32 %183, i32* %4, align 4
  br label %167

184:                                              ; preds = %167
  %185 = load i32, i32* %3, align 4
  %186 = add nsw i32 %185, -1
  store i32 %186, i32* %3, align 4
  br label %45

187:                                              ; preds = %45
  store i32 0, i32* %8, align 4
  store i32 1, i32* %4, align 4
  br label %188

188:                                              ; preds = %215, %187
  %189 = load i32, i32* %4, align 4
  %190 = load i32, i32* %2, align 4
  %191 = icmp sle i32 %189, %190
  br i1 %191, label %192, label %218

192:                                              ; preds = %188
  store i32 0, i32* %5, align 4
  br label %193

193:                                              ; preds = %211, %192
  %194 = load i32, i32* %5, align 4
  %195 = load i32, i32* %2, align 4
  %196 = icmp slt i32 %194, %195
  br i1 %196, label %197, label %214

197:                                              ; preds = %193
  %198 = load i32, i32* %4, align 4
  %199 = sext i32 %198 to i64
  %200 = getelementptr inbounds [100 x [100 x i8]], [100 x [100 x i8]]* %6, i64 0, i64 %199
  %201 = load i32, i32* %5, align 4
  %202 = sext i32 %201 to i64
  %203 = getelementptr inbounds [100 x i8], [100 x i8]* %200, i64 0, i64 %202
  %204 = load i8, i8* %203, align 1
  %205 = sext i8 %204 to i32
  %206 = icmp eq i32 %205, 64
  br i1 %206, label %207, label %210

207:                                              ; preds = %197
  %208 = load i32, i32* %8, align 4
  %209 = add nsw i32 %208, 1
  store i32 %209, i32* %8, align 4
  br label %210

210:                                              ; preds = %207, %197
  br label %211

211:                                              ; preds = %210
  %212 = load i32, i32* %5, align 4
  %213 = add nsw i32 %212, 1
  store i32 %213, i32* %5, align 4
  br label %193

214:                                              ; preds = %193
  br label %215

215:                                              ; preds = %214
  %216 = load i32, i32* %4, align 4
  %217 = add nsw i32 %216, 1
  store i32 %217, i32* %4, align 4
  br label %188

218:                                              ; preds = %188
  %219 = load i32, i32* %8, align 4
  %220 = call i32 (i8*, ...) @printf(i8* getelementptr inbounds ([3 x i8], [3 x i8]* @.str, i64 0, i64 0), i32 %219)
  ret i32 0
}